target datalayout = "e-m:e-p270:32:32-p271:32:32-p272:64:64-i64:64-i128:128-f80:128-n8:16:32:64-S128"
target triple = "x86_64-pc-linux-gnu"

%struct._object = type { %union.anon, ptr }
%union.anon = type { i64 }

@_Py_NoneStruct = external global %struct._object, align 8
@.str.56 = private unnamed_addr constant [11 x i8] c"excepthook\00", align 1

; Function Attrs: nounwind uwtable
define internal ptr @sys_excepthook_impl(ptr noundef %0, ptr noundef %1, ptr noundef %2, ptr noundef %3) #0 {
  %5 = alloca ptr, align 8
  %6 = alloca ptr, align 8
  %7 = alloca ptr, align 8
  %8 = alloca ptr, align 8
  store ptr %0, ptr %5, align 8, !tbaa !9
  store ptr %1, ptr %6, align 8, !tbaa !9
  store ptr %2, ptr %7, align 8, !tbaa !9
  store ptr %3, ptr %8, align 8, !tbaa !9
  %9 = load ptr, ptr %7, align 8, !tbaa !9
  %10 = load ptr, ptr %8, align 8, !tbaa !9
  call void @PyErr_Display(ptr noundef null, ptr noundef %9, ptr noundef %10)
  ret ptr @_Py_NoneStruct
}

; Function Attrs: nounwind uwtable
define internal ptr @sys_excepthook(ptr noundef %0, ptr noundef %1, i64 noundef %2) #0 {
  %4 = alloca ptr, align 8
  %5 = alloca ptr, align 8
  %6 = alloca i64, align 8
  %7 = alloca ptr, align 8
  %8 = alloca ptr, align 8
  %9 = alloca ptr, align 8
  %10 = alloca ptr, align 8
  store ptr %0, ptr %4, align 8, !tbaa !9
  store ptr %1, ptr %5, align 8, !tbaa !103
  store i64 %2, ptr %6, align 8, !tbaa !204
  call void @llvm.lifetime.start.p0(i64 8, ptr %7) #12
  store ptr null, ptr %7, align 8, !tbaa !9
  call void @llvm.lifetime.start.p0(i64 8, ptr %8) #12
  call void @llvm.lifetime.start.p0(i64 8, ptr %9) #12
  call void @llvm.lifetime.start.p0(i64 8, ptr %10) #12
  %11 = load i64, ptr %6, align 8, !tbaa !204
  %12 = icmp sle i64 3, %11
  br i1 %12, label %13, label %16

13:                                               ; preds = %3
  %14 = load i64, ptr %6, align 8, !tbaa !204
  %15 = icmp sle i64 %14, 3
  br i1 %15, label %21, label %16

16:                                               ; preds = %13, %3
  %17 = load i64, ptr %6, align 8, !tbaa !204
  %18 = call i32 @_PyArg_CheckPositional(ptr noundef @.str.56, i64 noundef %17, i64 noundef 3, i64 noundef 3)
  %19 = icmp ne i32 %18, 0
  br i1 %19, label %21, label %20

20:                                               ; preds = %16
  br label %36

21:                                               ; preds = %16, %13
  %22 = load ptr, ptr %5, align 8, !tbaa !103
  %23 = getelementptr ptr, ptr %22, i64 0
  %24 = load ptr, ptr %23, align 8, !tbaa !9
  store ptr %24, ptr %8, align 8, !tbaa !9
  %25 = load ptr, ptr %5, align 8, !tbaa !103
  %26 = getelementptr ptr, ptr %25, i64 1
  %27 = load ptr, ptr %26, align 8, !tbaa !9
  store ptr %27, ptr %9, align 8, !tbaa !9
  %28 = load ptr, ptr %5, align 8, !tbaa !103
  %29 = getelementptr ptr, ptr %28, i64 2
  %30 = load ptr, ptr %29, align 8, !tbaa !9
  store ptr %30, ptr %10, align 8, !tbaa !9
  %31 = load ptr, ptr %4, align 8, !tbaa !9
  %32 = load ptr, ptr %8, align 8, !tbaa !9
  %33 = load ptr, ptr %9, align 8, !tbaa !9
  %34 = load ptr, ptr %10, align 8, !tbaa !9
  %35 = call ptr @sys_excepthook_impl(ptr noundef %31, ptr noundef %32, ptr noundef %33, ptr noundef %34)
  store ptr %35, ptr %7, align 8, !tbaa !9
  br label %36

36:                                               ; preds = %21, %20
  %37 = load ptr, ptr %7, align 8, !tbaa !9
  call void @llvm.lifetime.end.p0(i64 8, ptr %10) #12
  call void @llvm.lifetime.end.p0(i64 8, ptr %9) #12
  call void @llvm.lifetime.end.p0(i64 8, ptr %8) #12
  call void @llvm.lifetime.end.p0(i64 8, ptr %7) #12
  ret ptr %37
}