; Function Attrs: nounwind uwtable
define internal noundef ptr @sys_excepthook(ptr readnone captures(none) %0, ptr noundef readonly captures(none) %1, i64 noundef %2) #0 {
  %or.cond = icmp eq i64 %2, 3
  br i1 %or.cond, label %6, label %4

4:                                                ; preds = %3
  %5 = tail call i32 @_PyArg_CheckPositional(ptr noundef nonnull @.str.56, i64 noundef %2, i64 noundef 3, i64 noundef 3) #15
  %.not = icmp eq i32 %5, 0
  br i1 %.not, label %11, label %6

6:                                                ; preds = %3, %4
  %7 = getelementptr i8, ptr %1, i64 8
  %8 = load ptr, ptr %7, align 8, !tbaa !93
  %9 = getelementptr i8, ptr %1, i64 16
  %10 = load ptr, ptr %9, align 8, !tbaa !93
  tail call void @PyErr_Display(ptr noundef null, ptr noundef %8, ptr noundef %10) #15
  br label %11

11:                                               ; preds = %4, %6
  %.0 = phi ptr [ @_Py_NoneStruct, %6 ], [ null, %4 ]
  ret ptr %.0
}